; Function Attrs: nounwind uwtable
define internal i32 @filter_frame(ptr noundef readonly captures(none) %0, ptr noundef %1) #1 {
  %3 = alloca ptr, align 8
  %4 = alloca %struct.ThreadData, align 8
  store ptr %1, ptr %3, align 8, !tbaa !31
  %5 = getelementptr inbounds nuw i8, ptr %0, i64 16
  %6 = load ptr, ptr %5, align 8, !tbaa !33
  %7 = getelementptr inbounds nuw i8, ptr %6, i64 72
  %8 = load ptr, ptr %7, align 8, !tbaa !4
  %9 = getelementptr inbounds nuw i8, ptr %6, i64 56
  %10 = load ptr, ptr %9, align 8, !tbaa !42
  %11 = load ptr, ptr %10, align 8, !tbaa !43
  call void @llvm.lifetime.start.p0(i64 16, ptr nonnull %4) #8
  %12 = tail call i32 @av_frame_is_writable(ptr noundef %1) #8
  %.not = icmp eq i32 %12, 0
  br i1 %.not, label %13, label %22

13:                                               ; preds = %2
  %14 = getelementptr inbounds nuw i8, ptr %11, i64 40
  %15 = load i32, ptr %14, align 8, !tbaa !45
  %16 = getelementptr inbounds nuw i8, ptr %11, i64 44
  %17 = load i32, ptr %16, align 4, !tbaa !46
  %18 = tail call ptr @ff_get_video_buffer(ptr noundef %11, i32 noundef %15, i32 noundef %17) #8
  %.not20 = icmp eq ptr %18, null
  br i1 %.not20, label %19, label %20

19:                                               ; preds = %13
  call void @av_frame_free(ptr noundef nonnull %3) #8
  br label %35

20:                                               ; preds = %13
  %21 = tail call i32 @av_frame_copy_props(ptr noundef nonnull %18, ptr noundef %1) #8
  br label %22

22:                                               ; preds = %2, %20
  %.0 = phi ptr [ %18, %20 ], [ %1, %2 ]
  store ptr %1, ptr %4, align 8, !tbaa !47
  %23 = getelementptr inbounds nuw i8, ptr %4, i64 8
  store ptr %.0, ptr %23, align 8, !tbaa !49
  %24 = getelementptr inbounds nuw i8, ptr %8, i64 20
  %25 = load i32, ptr %24, align 4, !tbaa !50
  %26 = call i32 @ff_filter_execute(ptr noundef nonnull %6, ptr noundef nonnull @bilateralh_planes, ptr noundef nonnull %4, ptr noundef null, i32 noundef %25) #8
  %27 = load i32, ptr %24, align 4, !tbaa !50
  %28 = call i32 @ff_filter_execute(ptr noundef nonnull %6, ptr noundef nonnull @bilateralv_planes, ptr noundef nonnull %4, ptr noundef null, i32 noundef %27) #8
  %29 = load i32, ptr %24, align 4, !tbaa !50
  %30 = call i32 @ff_filter_execute(ptr noundef nonnull %6, ptr noundef nonnull @bilateralo_planes, ptr noundef nonnull %4, ptr noundef null, i32 noundef %29) #8
  %31 = load ptr, ptr %3, align 8, !tbaa !31
  %.not21 = icmp eq ptr %.0, %31
  br i1 %.not21, label %33, label %32

32:                                               ; preds = %22
  call void @av_frame_free(ptr noundef nonnull %3) #8
  br label %33

33:                                               ; preds = %32, %22
  %34 = call i32 @ff_filter_frame(ptr noundef %11, ptr noundef %.0) #8
  br label %35

35:                                               ; preds = %33, %19
  %.018 = phi i32 [ %34, %33 ], [ -12, %19 ]
  call void @llvm.lifetime.end.p0(i64 16, ptr nonnull %4) #8
  ret i32 %.018
}